target datalayout = "e-m:e-p270:32:32-p271:32:32-p272:64:64-i64:64-i128:128-f80:128-n8:16:32:64-S128"
target triple = "x86_64-pc-linux-gnu"

%"class.std::__cxx11::basic_string" = type { %"struct.std::__cxx11::basic_string<char>::_Alloc_hider", i64, %union.anon }
%"struct.std::__cxx11::basic_string<char>::_Alloc_hider" = type { ptr }
%union.anon = type { i64, [8 x i8] }
%"class.google::protobuf::MessageLite" = type { ptr, %"class.google::protobuf::internal::InternalMetadata" }
%"class.google::protobuf::internal::InternalMetadata" = type { ptr }
%"class.google::protobuf::internal::ExtensionSet" = type { ptr, i16, i16, %"union.google::protobuf::internal::ExtensionSet::AllocatedData" }
%"union.google::protobuf::internal::ExtensionSet::AllocatedData" = type { ptr }
%"class.google::protobuf::internal::CachedSize" = type { %"struct.std::atomic" }
%"struct.std::atomic" = type { %"struct.std::__atomic_base" }
%"struct.std::__atomic_base" = type { i32 }
%"struct.google::protobuf::internal::ArenaStringPtr" = type { %"class.google::protobuf::internal::TaggedPtr" }
%"class.google::protobuf::internal::TaggedPtr" = type { ptr }
%"struct.google::protobuf::internal::InternalMetadata::Container" = type { %"struct.google::protobuf::internal::InternalMetadata::ContainerBase", %"class.std::__cxx11::basic_string" }
%"struct.google::protobuf::internal::InternalMetadata::ContainerBase" = type { ptr }
%"class.google::protobuf::internal::HasBits.11" = type { [1 x i32] }
%"class.sentencepiece::ModelProto_SentencePiece" = type { %"class.google::protobuf::MessageLite", %"class.google::protobuf::internal::ExtensionSet", %"class.google::protobuf::internal::HasBits.11", %"class.google::protobuf::internal::CachedSize", %"struct.google::protobuf::internal::ArenaStringPtr", float, i32 }

; Function Attrs: mustprogress nounwind uwtable
define linkonce_odr noundef i32 @_ZStanSt12memory_orderSt23__memory_order_modifier(i32 noundef %0, i32 noundef %1) #5 comdat {
  %3 = alloca i32, align 4
  %4 = alloca i32, align 4
  store i32 %0, ptr %3, align 4, !tbaa !232
  store i32 %1, ptr %4, align 4, !tbaa !236
  %5 = load i32, ptr %3, align 4, !tbaa !232
  %6 = load i32, ptr %4, align 4, !tbaa !236
  %7 = and i32 %5, %6
  ret i32 %7
}

; Function Attrs: mustprogress nounwind uwtable
define linkonce_odr noundef i32 @_ZN6google8protobuf4Bits16Log2FloorNonZeroEj(i32 noundef %0) #5 comdat align 2 {
  %2 = alloca i32, align 4
  store i32 %0, ptr %2, align 4, !tbaa !7
  %3 = load i32, ptr %2, align 4, !tbaa !7
  %4 = call i32 @llvm.ctlz.i32(i32 %3, i1 true)
  %5 = xor i32 31, %4
  ret i32 %5
}

; Function Attrs: mustprogress nounwind uwtable
define linkonce_odr noundef i64 @_ZNK6google8protobuf8internal9TaggedPtrINSt7__cxx1112basic_stringIcSt11char_traitsIcESaIcEEEE6as_intEv(ptr noundef nonnull align 8 dereferenceable(8) %0) #5 comdat align 2 {
  %2 = alloca ptr, align 8
  store ptr %0, ptr %2, align 8, !tbaa !244
  %3 = load ptr, ptr %2, align 8
  %4 = getelementptr inbounds nuw %"class.google::protobuf::internal::TaggedPtr", ptr %3, i32 0, i32 0
  %5 = load ptr, ptr %4, align 8, !tbaa !246
  %6 = ptrtoint ptr %5 to i64
  ret i64 %6
}

; Function Attrs: alwaysinline mustprogress nounwind uwtable
define linkonce_odr void @_ZNSt13__atomic_baseIiE5storeEiSt12memory_order(ptr noundef nonnull align 4 dereferenceable(4) %0, i32 noundef %1, i32 noundef %2) #8 comdat align 2 {
  %4 = alloca ptr, align 8
  %5 = alloca i32, align 4
  %6 = alloca i32, align 4
  %7 = alloca i32, align 4
  %8 = alloca i32, align 4
  store ptr %0, ptr %4, align 8, !tbaa !241
  store i32 %1, ptr %5, align 4, !tbaa !7
  store i32 %2, ptr %6, align 4, !tbaa !232
  %9 = load ptr, ptr %4, align 8
  call void @llvm.lifetime.start.p0(i64 4, ptr %7) #3
  %10 = load i32, ptr %6, align 4, !tbaa !232
  %11 = call noundef i32 @_ZStanSt12memory_orderSt23__memory_order_modifier(i32 noundef %10, i32 noundef 65535)
  store i32 %11, ptr %7, align 4, !tbaa !232
  br label %12

12:                                               ; preds = %3
  br label %13

13:                                               ; preds = %12
  br label %14

14:                                               ; preds = %13
  br label %15

15:                                               ; preds = %14
  br label %16

16:                                               ; preds = %15
  br label %17

17:                                               ; preds = %16
  br label %18

18:                                               ; preds = %17
  br label %19

19:                                               ; preds = %18
  br label %20

20:                                               ; preds = %19
  %21 = getelementptr inbounds nuw %"struct.std::__atomic_base", ptr %9, i32 0, i32 0
  %22 = load i32, ptr %6, align 4, !tbaa !232
  %23 = load i32, ptr %5, align 4, !tbaa !7
  store i32 %23, ptr %8, align 4, !tbaa !7
  switch i32 %22, label %24 [
    i32 3, label %26
    i32 5, label %28
  ]

24:                                               ; preds = %20
  %25 = load i32, ptr %8, align 4
  store atomic i32 %25, ptr %21 monotonic, align 4
  br label %30

26:                                               ; preds = %20
  %27 = load i32, ptr %8, align 4
  store atomic i32 %27, ptr %21 release, align 4
  br label %30

28:                                               ; preds = %20
  %29 = load i32, ptr %8, align 4
  store atomic i32 %29, ptr %21 seq_cst, align 4
  br label %30

30:                                               ; preds = %28, %26, %24
  call void @llvm.lifetime.end.p0(i64 4, ptr %7) #3
  ret void
}

; Function Attrs: inlinehint mustprogress uwtable
define linkonce_odr noundef i64 @_ZN6google8protobuf2io17CodedOutputStream12VarintSize32Ej(i32 noundef %0) #7 comdat align 2 {
  %2 = alloca i32, align 4
  %3 = alloca i32, align 4
  store i32 %0, ptr %2, align 4, !tbaa !7
  call void @llvm.lifetime.start.p0(i64 4, ptr %3) #3
  %4 = load i32, ptr %2, align 4, !tbaa !7
  %5 = or i32 %4, 1
  %6 = call noundef i32 @_ZN6google8protobuf4Bits16Log2FloorNonZeroEj(i32 noundef %5)
  store i32 %6, ptr %3, align 4, !tbaa !7
  %7 = load i32, ptr %3, align 4, !tbaa !7
  %8 = mul i32 %7, 9
  %9 = add i32 %8, 73
  %10 = udiv i32 %9, 64
  %11 = zext i32 %10 to i64
  call void @llvm.lifetime.end.p0(i64 4, ptr %3) #3
  ret i64 %11
}

; Function Attrs: mustprogress uwtable
define linkonce_odr noundef ptr @_ZNK6google8protobuf8internal9TaggedPtrINSt7__cxx1112basic_stringIcSt11char_traitsIcESaIcEEEE3GetEv(ptr noundef nonnull align 8 dereferenceable(8) %0) #4 comdat align 2 {
  %2 = alloca ptr, align 8
  store ptr %0, ptr %2, align 8, !tbaa !244
  %3 = load ptr, ptr %2, align 8
  %4 = call noundef i64 @_ZNK6google8protobuf8internal9TaggedPtrINSt7__cxx1112basic_stringIcSt11char_traitsIcESaIcEEEE6as_intEv(ptr noundef nonnull align 8 dereferenceable(8) %3)
  %5 = and i64 %4, -2
  %6 = inttoptr i64 %5 to ptr
  ret ptr %6
}

; Function Attrs: mustprogress nounwind uwtable
define linkonce_odr void @_ZN6google8protobuf8internal10CachedSize3SetEi(ptr noundef nonnull align 4 dereferenceable(4) %0, i32 noundef %1) #5 comdat align 2 {
  %3 = alloca ptr, align 8
  %4 = alloca i32, align 4
  store ptr %0, ptr %3, align 8, !tbaa !43
  store i32 %1, ptr %4, align 4, !tbaa !7
  %5 = load ptr, ptr %3, align 8
  %6 = getelementptr inbounds nuw %"class.google::protobuf::internal::CachedSize", ptr %5, i32 0, i32 0
  %7 = load i32, ptr %4, align 4, !tbaa !7
  call void @_ZNSt13__atomic_baseIiE5storeEiSt12memory_order(ptr noundef nonnull align 4 dereferenceable(4) %6, i32 noundef %7, i32 noundef 0) #3
  ret void
}

; Function Attrs: mustprogress nounwind uwtable
define linkonce_odr noundef ptr @_ZNK6google8protobuf8internal16InternalMetadata8PtrValueINS2_9ContainerINSt7__cxx1112basic_stringIcSt11char_traitsIcESaIcEEEEEEEPT_v(ptr noundef nonnull align 8 dereferenceable(8) %0) #5 comdat align 2 {
  %2 = alloca ptr, align 8
  store ptr %0, ptr %2, align 8, !tbaa !87
  %3 = load ptr, ptr %2, align 8
  %4 = getelementptr inbounds nuw %"class.google::protobuf::internal::InternalMetadata", ptr %3, i32 0, i32 0
  %5 = load ptr, ptr %4, align 8, !tbaa !238
  %6 = ptrtoint ptr %5 to i64
  %7 = and i64 %6, -2
  %8 = inttoptr i64 %7 to ptr
  ret ptr %8
}

; Function Attrs: alwaysinline mustprogress nounwind uwtable
define linkonce_odr noundef i32 @_ZNK6google8protobuf8internal16InternalMetadata6PtrTagEv(ptr noundef nonnull align 8 dereferenceable(8) %0) #8 comdat align 2 {
  %2 = alloca ptr, align 8
  store ptr %0, ptr %2, align 8, !tbaa !87
  %3 = load ptr, ptr %2, align 8
  %4 = getelementptr inbounds nuw %"class.google::protobuf::internal::InternalMetadata", ptr %3, i32 0, i32 0
  %5 = load ptr, ptr %4, align 8, !tbaa !238
  %6 = ptrtoint ptr %5 to i64
  %7 = and i64 %6, 1
  %8 = trunc i64 %7 to i32
  ret i32 %8
}

; Function Attrs: inlinehint mustprogress uwtable
define linkonce_odr noundef i64 @_ZN6google8protobuf2io17CodedOutputStream24VarintSize32SignExtendedEi(i32 noundef %0) #7 comdat align 2 {
  %2 = alloca i64, align 8
  %3 = alloca i32, align 4
  store i32 %0, ptr %3, align 4, !tbaa !7
  %4 = load i32, ptr %3, align 4, !tbaa !7
  %5 = icmp slt i32 %4, 0
  br i1 %5, label %6, label %7

6:                                                ; preds = %1
  store i64 10, ptr %2, align 8
  br label %10

7:                                                ; preds = %1
  %8 = load i32, ptr %3, align 4, !tbaa !7
  %9 = call noundef i64 @_ZN6google8protobuf2io17CodedOutputStream12VarintSize32Ej(i32 noundef %8)
  store i64 %9, ptr %2, align 8
  br label %10

10:                                               ; preds = %7, %6
  %11 = load i64, ptr %2, align 8
  ret i64 %11
}

; Function Attrs: inlinehint mustprogress uwtable
define linkonce_odr noundef i64 @_ZN6google8protobuf8internal14WireFormatLite19LengthDelimitedSizeEm(i64 noundef %0) #7 comdat align 2 {
  %2 = alloca i64, align 8
  store i64 %0, ptr %2, align 8, !tbaa !17
  %3 = load i64, ptr %2, align 8, !tbaa !17
  %4 = load i64, ptr %2, align 8, !tbaa !17
  %5 = trunc i64 %4 to i32
  %6 = call noundef i64 @_ZN6google8protobuf2io17CodedOutputStream12VarintSize32Ej(i32 noundef %5)
  %7 = add i64 %3, %6
  ret i64 %7
}

; Function Attrs: alwaysinline mustprogress uwtable
define linkonce_odr noundef nonnull align 8 dereferenceable(32) ptr @_ZNK6google8protobuf8internal14ArenaStringPtr3GetB5cxx11Ev(ptr noundef nonnull align 8 dereferenceable(8) %0) #12 comdat align 2 {
  %2 = alloca ptr, align 8
  store ptr %0, ptr %2, align 8, !tbaa !89
  %3 = load ptr, ptr %2, align 8
  %4 = getelementptr inbounds nuw %"struct.google::protobuf::internal::ArenaStringPtr", ptr %3, i32 0, i32 0
  %5 = call noundef ptr @_ZNK6google8protobuf8internal9TaggedPtrINSt7__cxx1112basic_stringIcSt11char_traitsIcESaIcEEEE3GetEv(ptr noundef nonnull align 8 dereferenceable(8) %4)
  ret ptr %5
}

; Function Attrs: mustprogress uwtable
define void @_ZNK13sentencepiece24ModelProto_SentencePiece13SetCachedSizeEi(ptr noundef nonnull align 8 dereferenceable(64) %0, i32 noundef %1) #4 align 2 {
  %3 = alloca ptr, align 8
  %4 = alloca i32, align 4
  store ptr %0, ptr %3, align 8, !tbaa !194
  store i32 %1, ptr %4, align 4, !tbaa !7
  %5 = load ptr, ptr %3, align 8
  %6 = getelementptr inbounds nuw %"class.sentencepiece::ModelProto_SentencePiece", ptr %5, i32 0, i32 3
  %7 = load i32, ptr %4, align 4, !tbaa !7
  call void @_ZN6google8protobuf8internal10CachedSize3SetEi(ptr noundef nonnull align 4 dereferenceable(4) %6, i32 noundef %7)
  ret void
}

; Function Attrs: inlinehint mustprogress nounwind uwtable
define linkonce_odr noundef i32 @_ZN6google8protobuf8internal12ToCachedSizeEm(i64 noundef %0) #9 comdat {
  %2 = alloca i64, align 8
  store i64 %0, ptr %2, align 8, !tbaa !17
  %3 = load i64, ptr %2, align 8, !tbaa !17
  %4 = trunc i64 %3 to i32
  ret i32 %4
}

; Function Attrs: mustprogress nounwind uwtable
define available_externally noundef i64 @_ZNKSt7__cxx1112basic_stringIcSt11char_traitsIcESaIcEE4sizeEv(ptr noundef nonnull align 8 dereferenceable(32) %0) #5 align 2 {
  %2 = alloca ptr, align 8
  store ptr %0, ptr %2, align 8, !tbaa !27
  %3 = load ptr, ptr %2, align 8
  %4 = getelementptr inbounds nuw %"class.std::__cxx11::basic_string", ptr %3, i32 0, i32 1
  %5 = load i64, ptr %4, align 8, !tbaa !145
  ret i64 %5
}

; Function Attrs: alwaysinline mustprogress uwtable
define linkonce_odr noundef nonnull align 8 dereferenceable(32) ptr @_ZNK6google8protobuf8internal16InternalMetadata14unknown_fieldsINSt7__cxx1112basic_stringIcSt11char_traitsIcESaIcEEEEERKT_PFSC_vE(ptr noundef nonnull align 8 dereferenceable(8) %0, ptr noundef %1) #12 comdat align 2 {
  %3 = alloca ptr, align 8
  %4 = alloca ptr, align 8
  %5 = alloca ptr, align 8
  store ptr %0, ptr %4, align 8, !tbaa !87
  store ptr %1, ptr %5, align 8, !tbaa !3
  %6 = load ptr, ptr %4, align 8
  %7 = call noundef zeroext i1 @_ZNK6google8protobuf8internal16InternalMetadata19have_unknown_fieldsEv(ptr noundef nonnull align 8 dereferenceable(8) %6)
  %8 = zext i1 %7 to i64
  %9 = call i64 @llvm.expect.i64(i64 %8, i64 0)
  %10 = icmp ne i64 %9, 0
  br i1 %10, label %11, label %14

11:                                               ; preds = %2
  %12 = call noundef ptr @_ZNK6google8protobuf8internal16InternalMetadata8PtrValueINS2_9ContainerINSt7__cxx1112basic_stringIcSt11char_traitsIcESaIcEEEEEEEPT_v(ptr noundef nonnull align 8 dereferenceable(8) %6)
  %13 = getelementptr inbounds nuw %"struct.google::protobuf::internal::InternalMetadata::Container", ptr %12, i32 0, i32 1
  store ptr %13, ptr %3, align 8
  br label %17

14:                                               ; preds = %2
  %15 = load ptr, ptr %5, align 8, !tbaa !3
  %16 = call noundef nonnull align 8 dereferenceable(32) ptr %15()
  store ptr %16, ptr %3, align 8
  br label %17

17:                                               ; preds = %14, %11
  %18 = load ptr, ptr %3, align 8
  ret ptr %18
}

; Function Attrs: alwaysinline mustprogress uwtable
define linkonce_odr noundef zeroext i1 @_ZNK6google8protobuf8internal16InternalMetadata19have_unknown_fieldsEv(ptr noundef nonnull align 8 dereferenceable(8) %0) #12 comdat align 2 {
  %2 = alloca ptr, align 8
  store ptr %0, ptr %2, align 8, !tbaa !87
  %3 = load ptr, ptr %2, align 8
  %4 = call noundef i32 @_ZNK6google8protobuf8internal16InternalMetadata6PtrTagEv(ptr noundef nonnull align 8 dereferenceable(8) %3)
  %5 = icmp eq i32 %4, 1
  ret i1 %5
}

; Function Attrs: inlinehint mustprogress uwtable
define linkonce_odr noundef i64 @_ZN6google8protobuf8internal14WireFormatLite8EnumSizeEi(i32 noundef %0) #7 comdat align 2 {
  %2 = alloca i32, align 4
  store i32 %0, ptr %2, align 4, !tbaa !7
  %3 = load i32, ptr %2, align 4, !tbaa !7
  %4 = call noundef i64 @_ZN6google8protobuf2io17CodedOutputStream24VarintSize32SignExtendedEi(i32 noundef %3)
  ret i64 %4
}

; Function Attrs: inlinehint mustprogress nounwind uwtable
define linkonce_odr noundef i32 @_ZNK13sentencepiece24ModelProto_SentencePiece14_internal_typeEv(ptr noundef nonnull align 8 dereferenceable(64) %0) #9 comdat align 2 {
  %2 = alloca ptr, align 8
  store ptr %0, ptr %2, align 8, !tbaa !194
  %3 = load ptr, ptr %2, align 8
  %4 = getelementptr inbounds nuw %"class.sentencepiece::ModelProto_SentencePiece", ptr %3, i32 0, i32 6
  %5 = load i32, ptr %4, align 4, !tbaa !198
  ret i32 %5
}

; Function Attrs: inlinehint mustprogress uwtable
define linkonce_odr noundef i64 @_ZN6google8protobuf8internal14WireFormatLite10StringSizeERKNSt7__cxx1112basic_stringIcSt11char_traitsIcESaIcEEE(ptr noundef nonnull align 8 dereferenceable(32) %0) #7 comdat align 2 {
  %2 = alloca ptr, align 8
  store ptr %0, ptr %2, align 8, !tbaa !27
  %3 = load ptr, ptr %2, align 8, !tbaa !27
  %4 = call noundef i64 @_ZNKSt7__cxx1112basic_stringIcSt11char_traitsIcESaIcEE4sizeEv(ptr noundef nonnull align 8 dereferenceable(32) %3) #3
  %5 = call noundef i64 @_ZN6google8protobuf8internal14WireFormatLite19LengthDelimitedSizeEm(i64 noundef %4)
  ret i64 %5
}

; Function Attrs: inlinehint mustprogress uwtable
define linkonce_odr noundef nonnull align 8 dereferenceable(32) ptr @_ZNK13sentencepiece24ModelProto_SentencePiece15_internal_pieceB5cxx11Ev(ptr noundef nonnull align 8 dereferenceable(64) %0) #7 comdat align 2 {
  %2 = alloca ptr, align 8
  store ptr %0, ptr %2, align 8, !tbaa !194
  %3 = load ptr, ptr %2, align 8
  %4 = getelementptr inbounds nuw %"class.sentencepiece::ModelProto_SentencePiece", ptr %3, i32 0, i32 4
  %5 = call noundef nonnull align 8 dereferenceable(32) ptr @_ZNK6google8protobuf8internal14ArenaStringPtr3GetB5cxx11Ev(ptr noundef nonnull align 8 dereferenceable(8) %4)
  ret ptr %5
}

; Function Attrs: alwaysinline mustprogress nounwind uwtable
define linkonce_odr noundef nonnull align 4 dereferenceable(4) ptr @_ZNK6google8protobuf8internal7HasBitsILm1EEixEi(ptr noundef nonnull align 4 dereferenceable(4) %0, i32 noundef %1) #8 comdat align 2 {
  %3 = alloca ptr, align 8
  %4 = alloca i32, align 4
  store ptr %0, ptr %3, align 8, !tbaa !163
  store i32 %1, ptr %4, align 4, !tbaa !7
  %5 = load ptr, ptr %3, align 8
  %6 = getelementptr inbounds nuw %"class.google::protobuf::internal::HasBits.11", ptr %5, i32 0, i32 0
  %7 = load i32, ptr %4, align 4, !tbaa !7
  %8 = sext i32 %7 to i64
  %9 = getelementptr inbounds [1 x i32], ptr %6, i64 0, i64 %8
  ret ptr %9
}

; Function Attrs: mustprogress uwtable
define noundef i64 @_ZNK13sentencepiece24ModelProto_SentencePiece12ByteSizeLongEv(ptr noundef nonnull align 8 dereferenceable(64) %0) unnamed_addr #4 align 2 {
  %2 = alloca ptr, align 8
  %3 = alloca i64, align 8
  %4 = alloca i32, align 4
  %5 = alloca i32, align 4
  store ptr %0, ptr %2, align 8, !tbaa !194
  %6 = load ptr, ptr %2, align 8
  call void @llvm.lifetime.start.p0(i64 8, ptr %3) #3
  store i64 0, ptr %3, align 8, !tbaa !17
  %7 = getelementptr inbounds nuw %"class.sentencepiece::ModelProto_SentencePiece", ptr %6, i32 0, i32 1
  %8 = call noundef i64 @_ZNK6google8protobuf8internal12ExtensionSet8ByteSizeEv(ptr noundef nonnull align 8 dereferenceable(24) %7)
  %9 = load i64, ptr %3, align 8, !tbaa !17
  %10 = add i64 %9, %8
  store i64 %10, ptr %3, align 8, !tbaa !17
  call void @llvm.lifetime.start.p0(i64 4, ptr %4) #3
  store i32 0, ptr %4, align 4, !tbaa !7
  %11 = getelementptr inbounds nuw %"class.sentencepiece::ModelProto_SentencePiece", ptr %6, i32 0, i32 2
  %12 = call noundef nonnull align 4 dereferenceable(4) ptr @_ZNK6google8protobuf8internal7HasBitsILm1EEixEi(ptr noundef nonnull align 4 dereferenceable(4) %11, i32 noundef 0)
  %13 = load i32, ptr %12, align 4, !tbaa !7
  store i32 %13, ptr %4, align 4, !tbaa !7
  %14 = load i32, ptr %4, align 4, !tbaa !7
  %15 = and i32 %14, 7
  %16 = icmp ne i32 %15, 0
  br i1 %16, label %17, label %45

17:                                               ; preds = %1
  %18 = load i32, ptr %4, align 4, !tbaa !7
  %19 = and i32 %18, 1
  %20 = icmp ne i32 %19, 0
  br i1 %20, label %21, label %27

21:                                               ; preds = %17
  %22 = call noundef nonnull align 8 dereferenceable(32) ptr @_ZNK13sentencepiece24ModelProto_SentencePiece15_internal_pieceB5cxx11Ev(ptr noundef nonnull align 8 dereferenceable(64) %6)
  %23 = call noundef i64 @_ZN6google8protobuf8internal14WireFormatLite10StringSizeERKNSt7__cxx1112basic_stringIcSt11char_traitsIcESaIcEEE(ptr noundef nonnull align 8 dereferenceable(32) %22)
  %24 = add i64 1, %23
  %25 = load i64, ptr %3, align 8, !tbaa !17
  %26 = add i64 %25, %24
  store i64 %26, ptr %3, align 8, !tbaa !17
  br label %27

27:                                               ; preds = %21, %17
  %28 = load i32, ptr %4, align 4, !tbaa !7
  %29 = and i32 %28, 2
  %30 = icmp ne i32 %29, 0
  br i1 %30, label %31, label %34

31:                                               ; preds = %27
  %32 = load i64, ptr %3, align 8, !tbaa !17
  %33 = add i64 %32, 5
  store i64 %33, ptr %3, align 8, !tbaa !17
  br label %34

34:                                               ; preds = %31, %27
  %35 = load i32, ptr %4, align 4, !tbaa !7
  %36 = and i32 %35, 4
  %37 = icmp ne i32 %36, 0
  br i1 %37, label %38, label %44

38:                                               ; preds = %34
  %39 = call noundef i32 @_ZNK13sentencepiece24ModelProto_SentencePiece14_internal_typeEv(ptr noundef nonnull align 8 dereferenceable(64) %6)
  %40 = call noundef i64 @_ZN6google8protobuf8internal14WireFormatLite8EnumSizeEi(i32 noundef %39)
  %41 = add i64 1, %40
  %42 = load i64, ptr %3, align 8, !tbaa !17
  %43 = add i64 %42, %41
  store i64 %43, ptr %3, align 8, !tbaa !17
  br label %44

44:                                               ; preds = %38, %34
  br label %45

45:                                               ; preds = %44, %1
  %46 = getelementptr inbounds nuw %"class.google::protobuf::MessageLite", ptr %6, i32 0, i32 1
  %47 = call noundef zeroext i1 @_ZNK6google8protobuf8internal16InternalMetadata19have_unknown_fieldsEv(ptr noundef nonnull align 8 dereferenceable(8) %46)
  %48 = zext i1 %47 to i64
  %49 = call i64 @llvm.expect.i64(i64 %48, i64 0)
  %50 = icmp ne i64 %49, 0
  br i1 %50, label %51, label %57

51:                                               ; preds = %45
  %52 = getelementptr inbounds nuw %"class.google::protobuf::MessageLite", ptr %6, i32 0, i32 1
  %53 = call noundef nonnull align 8 dereferenceable(32) ptr @_ZNK6google8protobuf8internal16InternalMetadata14unknown_fieldsINSt7__cxx1112basic_stringIcSt11char_traitsIcESaIcEEEEERKT_PFSC_vE(ptr noundef nonnull align 8 dereferenceable(8) %52, ptr noundef @_ZN6google8protobuf8internal14GetEmptyStringB5cxx11Ev)
  %54 = call noundef i64 @_ZNKSt7__cxx1112basic_stringIcSt11char_traitsIcESaIcEE4sizeEv(ptr noundef nonnull align 8 dereferenceable(32) %53) #3
  %55 = load i64, ptr %3, align 8, !tbaa !17
  %56 = add i64 %55, %54
  store i64 %56, ptr %3, align 8, !tbaa !17
  br label %57

57:                                               ; preds = %51, %45
  call void @llvm.lifetime.start.p0(i64 4, ptr %5) #3
  %58 = load i64, ptr %3, align 8, !tbaa !17
  %59 = call noundef i32 @_ZN6google8protobuf8internal12ToCachedSizeEm(i64 noundef %58)
  store i32 %59, ptr %5, align 4, !tbaa !7
  %60 = load i32, ptr %5, align 4, !tbaa !7
  call void @_ZNK13sentencepiece24ModelProto_SentencePiece13SetCachedSizeEi(ptr noundef nonnull align 8 dereferenceable(64) %6, i32 noundef %60)
  %61 = load i64, ptr %3, align 8, !tbaa !17
  call void @llvm.lifetime.end.p0(i64 4, ptr %5) #3
  call void @llvm.lifetime.end.p0(i64 4, ptr %4) #3
  call void @llvm.lifetime.end.p0(i64 8, ptr %3) #3
  ret i64 %61
}