; Function Attrs: mustprogress uwtable
define noundef i64 @_ZNK13sentencepiece24ModelProto_SentencePiece12ByteSizeLongEv(ptr noundef nonnull align 8 dereferenceable(64) %0) unnamed_addr #3 align 2 personality ptr @__gxx_personality_v0 {
  %2 = getelementptr inbounds nuw i8, ptr %0, i64 16
  %3 = tail call noundef i64 @_ZNK6google8protobuf8internal12ExtensionSet8ByteSizeEv(ptr noundef nonnull align 8 dereferenceable(24) %2)
  %4 = getelementptr inbounds nuw i8, ptr %0, i64 40
  %5 = load i32, ptr %4, align 8, !tbaa !11
  %6 = and i32 %5, 7
  %.not = icmp eq i32 %6, 0
  br i1 %.not, label %45, label %7

7:                                                ; preds = %1
  %8 = and i32 %5, 1
  %.not12 = icmp eq i32 %8, 0
  br i1 %.not12, label %28, label %9

9:                                                ; preds = %7
  %10 = getelementptr inbounds nuw i8, ptr %0, i64 48
  %11 = load ptr, ptr %10, align 8, !tbaa !15
  %12 = ptrtoint ptr %11 to i64
  %13 = and i64 %12, -2
  %14 = inttoptr i64 %13 to ptr
  %15 = getelementptr inbounds nuw i8, ptr %14, i64 8
  %16 = load i64, ptr %15, align 8, !tbaa !41
  %17 = trunc i64 %16 to i32
  %18 = or i32 %17, 1
  %19 = tail call range(i32 0, 33) i32 @llvm.ctlz.i32(i32 %18, i1 true)
  %20 = xor i32 %19, 31
  %21 = mul nuw nsw i32 %20, 9
  %22 = add nuw nsw i32 %21, 73
  %23 = lshr i32 %22, 6
  %24 = zext nneg i32 %23 to i64
  %25 = add i64 %3, 1
  %26 = add i64 %25, %16
  %27 = add i64 %26, %24
  br label %28

28:                                               ; preds = %9, %7
  %.1 = phi i64 [ %27, %9 ], [ %3, %7 ]
  %29 = and i32 %5, 2
  %.not13 = icmp eq i32 %29, 0
  %30 = add i64 %.1, 5
  %spec.select = select i1 %.not13, i64 %.1, i64 %30
  %31 = and i32 %5, 4
  %.not14 = icmp eq i32 %31, 0
  br i1 %.not14, label %45, label %32

32:                                               ; preds = %28
  %33 = getelementptr inbounds nuw i8, ptr %0, i64 60
  %34 = load i32, ptr %33, align 4, !tbaa !28
  %35 = icmp slt i32 %34, 0
  br i1 %35, label %_ZN6google8protobuf8internal14WireFormatLite8EnumSizeEi.exit, label %36

36:                                               ; preds = %32
  %37 = or i32 %34, 1
  %38 = tail call range(i32 0, 33) i32 @llvm.ctlz.i32(i32 %37, i1 true)
  %39 = xor i32 %38, 31
  %40 = mul nuw nsw i32 %39, 9
  %41 = add nuw nsw i32 %40, 73
  %42 = lshr i32 %41, 6
  %narrow = add nuw nsw i32 %42, 1
  %43 = zext nneg i32 %narrow to i64
  br label %_ZN6google8protobuf8internal14WireFormatLite8EnumSizeEi.exit

_ZN6google8protobuf8internal14WireFormatLite8EnumSizeEi.exit: ; preds = %32, %36
  %.0.i.i = phi i64 [ %43, %36 ], [ 11, %32 ]
  %44 = add i64 %.0.i.i, %spec.select
  br label %45

45:                                               ; preds = %28, %_ZN6google8protobuf8internal14WireFormatLite8EnumSizeEi.exit, %1
  %.0 = phi i64 [ %44, %_ZN6google8protobuf8internal14WireFormatLite8EnumSizeEi.exit ], [ %spec.select, %28 ], [ %3, %1 ]
  %46 = getelementptr inbounds nuw i8, ptr %0, i64 8
  %47 = load ptr, ptr %46, align 8, !tbaa !3
  %48 = ptrtoint ptr %47 to i64
  %49 = and i64 %48, 1
  %.not15 = icmp eq i64 %49, 0
  br i1 %.not15, label %55, label %_ZNK6google8protobuf8internal16InternalMetadata14unknown_fieldsINSt7__cxx1112basic_stringIcSt11char_traitsIcESaIcEEEEERKT_PFSC_vE.exit, !prof !10

_ZNK6google8protobuf8internal16InternalMetadata14unknown_fieldsINSt7__cxx1112basic_stringIcSt11char_traitsIcESaIcEEEEERKT_PFSC_vE.exit: ; preds = %45
  %50 = and i64 %48, -2
  %51 = inttoptr i64 %50 to ptr
  %52 = getelementptr inbounds nuw i8, ptr %51, i64 16
  %53 = load i64, ptr %52, align 8, !tbaa !41
  %54 = add i64 %53, %.0
  br label %55

55:                                               ; preds = %_ZNK6google8protobuf8internal16InternalMetadata14unknown_fieldsINSt7__cxx1112basic_stringIcSt11char_traitsIcESaIcEEEEERKT_PFSC_vE.exit, %45
  %.3 = phi i64 [ %54, %_ZNK6google8protobuf8internal16InternalMetadata14unknown_fieldsINSt7__cxx1112basic_stringIcSt11char_traitsIcESaIcEEEEERKT_PFSC_vE.exit ], [ %.0, %45 ]
  %56 = trunc i64 %.3 to i32
  %57 = getelementptr inbounds nuw i8, ptr %0, i64 44
  store atomic i32 %56, ptr %57 monotonic, align 4
  ret i64 %.3
}